; Function Attrs: nounwind uwtable
define internal void @preferences_response_callback_idm1637(ptr noundef %0, i32 noundef %1, ptr noundef %2) #0 {
  %4 = tail call ptr @g_type_check_instance_cast(ptr noundef %0, i64 noundef 80) #12
  %5 = tail call ptr @g_object_get_data(ptr noundef %4, ptr noundef nonnull @.str) #12
  %6 = ptrtoint ptr %5 to i64
  %7 = and i64 %6, 4294967295
  %.not = icmp eq i64 %7, 0
  br i1 %.not, label %9, label %8

8:                                                ; preds = %3
  switch i32 %1, label %10 [
    i32 -1, label %18
    i32 -4, label %18
  ]

9:                                                ; preds = %3
  %.not8 = icmp eq i32 %1, -4
  br i1 %.not8, label %10, label %18

10:                                               ; preds = %8, %9
  %11 = tail call i64 @gtk_widget_get_type() #13
  %12 = tail call ptr @g_type_check_instance_cast(ptr noundef %0, i64 noundef %11) #12
  tail call void @gtk_widget_set_can_focus(ptr noundef %12, i32 noundef 1) #12
  %13 = tail call ptr @g_type_check_instance_cast(ptr noundef %0, i64 noundef %11) #12
  tail call void @gtk_widget_grab_focus(ptr noundef %13) #12
  %14 = tail call i64 @gtk_spin_button_get_type() #13
  %15 = tail call ptr @g_type_check_instance_cast(ptr noundef %2, i64 noundef %14) #12
  %16 = tail call reassoc nsz arcp contract afn double @gtk_spin_button_get_value(ptr noundef %15) #12
  %17 = fptosi double %16 to i32
  tail call void @dt_conf_set_int(ptr noundef nonnull @.str.30, i32 noundef %17) #12
  br label %18

18:                                               ; preds = %9, %8, %8, %10
  ret void
}